; Function Attrs: nounwind uwtable
define internal fastcc ptr @Ver_FormulaParserTopOper(ptr noundef %0, ptr noundef captures(none) %1, i32 noundef %2) unnamed_addr #0 {
  %4 = getelementptr inbounds nuw i8, ptr %1, i64 8
  %5 = load ptr, ptr %4, align 8, !tbaa !25
  %6 = getelementptr inbounds nuw i8, ptr %1, i64 4
  %7 = load i32, ptr %6, align 4, !tbaa !3
  %8 = sext i32 %7 to i64
  %9 = getelementptr ptr, ptr %5, i64 %8
  %10 = getelementptr i8, ptr %9, i64 -8
  %11 = load ptr, ptr %10, align 8, !tbaa !26
  %12 = add nsw i32 %7, -2
  store i32 %12, ptr %6, align 4, !tbaa !3
  %13 = sext i32 %12 to i64
  %14 = getelementptr inbounds ptr, ptr %5, i64 %13
  %15 = load ptr, ptr %14, align 8, !tbaa !26
  switch i32 %2, label %62 [
    i32 6, label %16
    i32 5, label %18
    i32 4, label %20
    i32 3, label %22
    i32 2, label %27
  ]

16:                                               ; preds = %3
  %17 = tail call ptr @Hop_And(ptr noundef %0, ptr noundef %15, ptr noundef %11) #11
  br label %33

18:                                               ; preds = %3
  %19 = tail call ptr @Hop_Exor(ptr noundef %0, ptr noundef %15, ptr noundef %11) #11
  br label %33

20:                                               ; preds = %3
  %21 = tail call ptr @Hop_Or(ptr noundef %0, ptr noundef %15, ptr noundef %11) #11
  br label %33

22:                                               ; preds = %3
  %23 = tail call ptr @Hop_Exor(ptr noundef %0, ptr noundef %15, ptr noundef %11) #11
  %24 = ptrtoint ptr %23 to i64
  %25 = xor i64 %24, 1
  %26 = inttoptr i64 %25 to ptr
  br label %33

27:                                               ; preds = %3
  %28 = add nsw i32 %7, -3
  store i32 %28, ptr %6, align 4, !tbaa !3
  %29 = sext i32 %28 to i64
  %30 = getelementptr inbounds ptr, ptr %5, i64 %29
  %31 = load ptr, ptr %30, align 8, !tbaa !26
  %32 = tail call ptr @Hop_Mux(ptr noundef %0, ptr noundef %31, ptr noundef %15, ptr noundef %11) #11
  br label %33

33:                                               ; preds = %18, %22, %27, %20, %16
  %.0 = phi ptr [ %17, %16 ], [ %19, %18 ], [ %21, %20 ], [ %26, %22 ], [ %32, %27 ]
  %34 = load i32, ptr %6, align 4, !tbaa !3
  %35 = load i32, ptr %1, align 8, !tbaa !27
  %36 = icmp eq i32 %34, %35
  br i1 %36, label %37, label %.Vec_PtrGrow.exit11_crit_edge.i

.Vec_PtrGrow.exit11_crit_edge.i:                  ; preds = %33
  %.pre.i = load ptr, ptr %4, align 8, !tbaa !25
  br label %Vec_PtrPush.exit

37:                                               ; preds = %33
  %38 = icmp slt i32 %34, 16
  br i1 %38, label %39, label %46

39:                                               ; preds = %37
  %40 = load ptr, ptr %4, align 8, !tbaa !25
  %.not9.i.i = icmp eq ptr %40, null
  br i1 %.not9.i.i, label %43, label %41

41:                                               ; preds = %39
  %42 = tail call dereferenceable_or_null(128) ptr @realloc(ptr noundef nonnull %40, i64 noundef 128) #9
  br label %Vec_PtrGrow.exit.i

43:                                               ; preds = %39
  %44 = tail call noalias dereferenceable_or_null(128) ptr @malloc(i64 noundef 128) #10
  br label %Vec_PtrGrow.exit.i

Vec_PtrGrow.exit.i:                               ; preds = %43, %41
  %45 = phi ptr [ %42, %41 ], [ %44, %43 ]
  store ptr %45, ptr %4, align 8, !tbaa !25
  store i32 16, ptr %1, align 8, !tbaa !27
  br label %Vec_PtrPush.exit

46:                                               ; preds = %37
  %47 = shl nuw nsw i32 %34, 1
  %48 = load ptr, ptr %4, align 8, !tbaa !25
  %.not9.i10.i = icmp eq ptr %48, null
  %49 = zext nneg i32 %47 to i64
  %50 = shl nuw nsw i64 %49, 3
  br i1 %.not9.i10.i, label %53, label %51

51:                                               ; preds = %46
  %52 = tail call ptr @realloc(ptr noundef nonnull %48, i64 noundef %50) #9
  br label %55

53:                                               ; preds = %46
  %54 = tail call noalias ptr @malloc(i64 noundef %50) #10
  br label %55

55:                                               ; preds = %53, %51
  %56 = phi ptr [ %52, %51 ], [ %54, %53 ]
  store ptr %56, ptr %4, align 8, !tbaa !25
  store i32 %47, ptr %1, align 8, !tbaa !27
  br label %Vec_PtrPush.exit

Vec_PtrPush.exit:                                 ; preds = %.Vec_PtrGrow.exit11_crit_edge.i, %Vec_PtrGrow.exit.i, %55
  %57 = phi ptr [ %.pre.i, %.Vec_PtrGrow.exit11_crit_edge.i ], [ %56, %55 ], [ %45, %Vec_PtrGrow.exit.i ]
  %58 = load i32, ptr %6, align 4, !tbaa !3
  %59 = add nsw i32 %58, 1
  store i32 %59, ptr %6, align 4, !tbaa !3
  %60 = sext i32 %58 to i64
  %61 = getelementptr inbounds ptr, ptr %57, i64 %60
  store ptr %.0, ptr %61, align 8, !tbaa !26
  br label %62

62:                                               ; preds = %3, %Vec_PtrPush.exit
  %.027 = phi ptr [ %.0, %Vec_PtrPush.exit ], [ null, %3 ]
  ret ptr %.027
}